target datalayout = "e-m:e-p270:32:32-p271:32:32-p272:64:64-i64:64-i128:128-f80:128-n8:16:32:64-S128"
target triple = "x86_64-unknown-linux-gnu"

%struct.BlockDriverState = type { i32, i8, i8, i8, i8, i8, ptr, ptr, ptr, %struct.anon.0, i8, [4096 x i8], [4096 x i8], [4096 x i8], [16 x i8], ptr, [4096 x i8], %struct.BlockLimits, i32, i32, i32, i32, [32 x i8], %union.anon, %union.anon.1, %union.anon.2, i32, [16 x %struct.anon.3], ptr, %struct.anon.4, ptr, ptr, %struct.anon.5, ptr, ptr, i32, ptr, i64, i64, %struct.QemuMutex, %struct.anon.6, %struct.Stat64, i32, i32, i32, i32, i32, i32, %struct.QemuMutex, %struct.anon.7, %struct.CoQueue, i8, i32, i8, %struct.CoMutex, ptr, ptr }
%struct.anon.0 = type { ptr }
%struct.BlockLimits = type { i32, i64, i32, i64, i32, i32, i32, i64, i32, i64, i64, i32, i8, i32, i32, i32, i32, i32, i32, i32 }
%union.anon = type { %struct.QTailQLink }
%struct.QTailQLink = type { ptr, ptr }
%union.anon.1 = type { %struct.QTailQLink }
%union.anon.2 = type { %struct.QTailQLink }
%struct.anon.3 = type { ptr }
%struct.anon.4 = type { ptr }
%struct.anon.5 = type { ptr }
%struct.anon.6 = type { ptr }
%struct.Stat64 = type { i64 }
%struct.QemuMutex = type { %union.pthread_mutex_t, i8 }
%union.pthread_mutex_t = type { %struct.__pthread_mutex_s }
%struct.__pthread_mutex_s = type { i32, i32, i32, i32, i32, i16, i16, %struct.__pthread_internal_list }
%struct.__pthread_internal_list = type { ptr, ptr }
%struct.anon.7 = type { ptr }
%struct.CoQueue = type { %struct.anon.8 }
%struct.anon.8 = type { ptr, ptr }
%struct.CoMutex = type { i32, ptr, %struct.anon.9, %struct.anon.9, i32, i32, ptr }
%struct.anon.9 = type { ptr }
%struct.BlockDriver = type { ptr, i32, i8, i8, i8, i8, i8, i8, ptr, ptr, ptr, ptr, ptr, ptr, ptr, ptr, ptr, ptr, ptr, ptr, ptr, ptr, ptr, ptr, ptr, ptr, ptr, ptr, ptr, ptr, ptr, ptr, ptr, ptr, ptr, ptr, ptr, ptr, ptr, ptr, ptr, ptr, ptr, ptr, ptr, ptr, ptr, ptr, ptr, ptr, ptr, ptr, ptr, ptr, ptr, ptr, ptr, ptr, ptr, ptr, ptr, %struct.anon.10, ptr, ptr, ptr, ptr, ptr, ptr, ptr, ptr, ptr, ptr, ptr, ptr, ptr, ptr, ptr, ptr, ptr, ptr, ptr, ptr, ptr, ptr, ptr, ptr, ptr, ptr, ptr, ptr, ptr, ptr, ptr, ptr, ptr, ptr, ptr, ptr, ptr, ptr, ptr, ptr, ptr, ptr, ptr, ptr, ptr, ptr, ptr, ptr, ptr }
%struct.anon.10 = type { ptr, ptr }

@.str.1 = private unnamed_addr constant [29 x i8] c"../qemu/block/dirty-bitmap.c\00", align 1
@.str.17 = private unnamed_addr constant [13 x i8] c"coroutine_fn\00", section "llvm.metadata"
@.str.18 = private unnamed_addr constant [111 x i8] c"/home/dtcxzyw/WorkSpace/Projects/compilers/llvm-opt-benchmark/bench/qemu/qemu/include/block/block_int-common.h\00", section "llvm.metadata"
@__func__.bdrv_co_can_store_new_dirty_bitmap = private unnamed_addr constant [35 x i8] c"bdrv_co_can_store_new_dirty_bitmap\00", align 1
@.str.19 = private unnamed_addr constant [37 x i8] c"Can't store persistent bitmaps to %s\00", align 1

; Function Attrs: nounwind sspstrong uwtable
define dso_local zeroext i1 @bdrv_co_can_store_new_dirty_bitmap(ptr noundef %bs, ptr noundef %name, i32 noundef %granularity, ptr noundef %errp) #0 {
entry:
  %retval = alloca i1, align 1
  %bs.addr = alloca ptr, align 8
  %name.addr = alloca ptr, align 8
  %granularity.addr = alloca i32, align 4
  %errp.addr = alloca ptr, align 8
  %drv = alloca ptr, align 8
  store ptr %bs, ptr %bs.addr, align 8
  store ptr %name, ptr %name.addr, align 8
  store i32 %granularity, ptr %granularity.addr, align 4
  store ptr %errp, ptr %errp.addr, align 8
  %0 = load ptr, ptr %bs.addr, align 8
  %drv1 = getelementptr inbounds %struct.BlockDriverState, ptr %0, i32 0, i32 6
  %1 = load ptr, ptr %drv1, align 8
  store ptr %1, ptr %drv, align 8
  call void @assert_bdrv_graph_readable()
  %2 = load ptr, ptr %drv, align 8
  %tobool = icmp ne ptr %2, null
  br i1 %tobool, label %if.end, label %if.then

if.then:                                          ; preds = %entry
  %3 = load ptr, ptr %errp.addr, align 8
  %4 = load ptr, ptr %bs.addr, align 8
  %call = call ptr @bdrv_get_device_or_node_name(ptr noundef %4)
  call void (ptr, ptr, i32, ptr, i32, ptr, ...) @error_setg_errno_internal(ptr noundef %3, ptr noundef @.str.1, i32 noundef 424, ptr noundef @__func__.bdrv_co_can_store_new_dirty_bitmap, i32 noundef 123, ptr noundef @.str.19, ptr noundef %call)
  store i1 false, ptr %retval, align 1
  br label %return

if.end:                                           ; preds = %entry
  %5 = load ptr, ptr %drv, align 8
  %bdrv_co_can_store_new_dirty_bitmap = getelementptr inbounds %struct.BlockDriver, ptr %5, i32 0, i32 109
  %6 = call ptr @llvm.ptr.annotation.p0.p0(ptr %bdrv_co_can_store_new_dirty_bitmap, ptr @.str.17, ptr @.str.18, i32 781, ptr null)
  %7 = load ptr, ptr %6, align 8
  %tobool2 = icmp ne ptr %7, null
  br i1 %tobool2, label %if.end5, label %if.then3

if.then3:                                         ; preds = %if.end
  %8 = load ptr, ptr %errp.addr, align 8
  %9 = load ptr, ptr %bs.addr, align 8
  %call4 = call ptr @bdrv_get_device_or_node_name(ptr noundef %9)
  call void (ptr, ptr, i32, ptr, i32, ptr, ...) @error_setg_errno_internal(ptr noundef %8, ptr noundef @.str.1, i32 noundef 431, ptr noundef @__func__.bdrv_co_can_store_new_dirty_bitmap, i32 noundef 95, ptr noundef @.str.19, ptr noundef %call4)
  store i1 false, ptr %retval, align 1
  br label %return

if.end5:                                          ; preds = %if.end
  %10 = load ptr, ptr %drv, align 8
  %bdrv_co_can_store_new_dirty_bitmap6 = getelementptr inbounds %struct.BlockDriver, ptr %10, i32 0, i32 109
  %11 = call ptr @llvm.ptr.annotation.p0.p0(ptr %bdrv_co_can_store_new_dirty_bitmap6, ptr @.str.17, ptr @.str.18, i32 781, ptr null)
  %12 = load ptr, ptr %11, align 8
  %13 = load ptr, ptr %bs.addr, align 8
  %14 = load ptr, ptr %name.addr, align 8
  %15 = load i32, ptr %granularity.addr, align 4
  %16 = load ptr, ptr %errp.addr, align 8
  %call7 = call zeroext i1 %12(ptr noundef %13, ptr noundef %14, i32 noundef %15, ptr noundef %16)
  store i1 %call7, ptr %retval, align 1
  br label %return

return:                                           ; preds = %if.end5, %if.then3, %if.then
  %17 = load i1, ptr %retval, align 1
  ret i1 %17
}