; Function Attrs: nounwind sspstrong uwtable
define dso_local zeroext i1 @bdrv_co_can_store_new_dirty_bitmap(ptr noundef %bs, ptr noundef %name, i32 noundef %granularity, ptr noundef %errp) #0 {
entry:
  %drv1 = getelementptr inbounds nuw i8, ptr %bs, i64 16
  %0 = load ptr, ptr %drv1, align 8
  tail call void @assert_bdrv_graph_readable() #14
  %tobool.not = icmp eq ptr %0, null
  br i1 %tobool.not, label %if.then, label %if.end

if.then:                                          ; preds = %entry
  %call = tail call ptr @bdrv_get_device_or_node_name(ptr noundef nonnull %bs) #14
  tail call void (ptr, ptr, i32, ptr, i32, ptr, ...) @error_setg_errno_internal(ptr noundef %errp, ptr noundef nonnull @.str.1, i32 noundef 424, ptr noundef nonnull @__func__.bdrv_co_can_store_new_dirty_bitmap, i32 noundef 123, ptr noundef nonnull @.str.19, ptr noundef %call) #14
  br label %return

if.end:                                           ; preds = %entry
  %bdrv_co_can_store_new_dirty_bitmap = getelementptr inbounds nuw i8, ptr %0, i64 840
  %1 = tail call ptr @llvm.ptr.annotation.p0.p0(ptr nonnull %bdrv_co_can_store_new_dirty_bitmap, ptr nonnull @.str.17, ptr nonnull @.str.18, i32 781, ptr null)
  %2 = load ptr, ptr %1, align 8
  %tobool2.not = icmp eq ptr %2, null
  br i1 %tobool2.not, label %if.then3, label %if.end5

if.then3:                                         ; preds = %if.end
  %call4 = tail call ptr @bdrv_get_device_or_node_name(ptr noundef nonnull %bs) #14
  tail call void (ptr, ptr, i32, ptr, i32, ptr, ...) @error_setg_errno_internal(ptr noundef %errp, ptr noundef nonnull @.str.1, i32 noundef 431, ptr noundef nonnull @__func__.bdrv_co_can_store_new_dirty_bitmap, i32 noundef 95, ptr noundef nonnull @.str.19, ptr noundef %call4) #14
  br label %return

if.end5:                                          ; preds = %if.end
  %3 = tail call ptr @llvm.ptr.annotation.p0.p0(ptr nonnull %bdrv_co_can_store_new_dirty_bitmap, ptr nonnull @.str.17, ptr nonnull @.str.18, i32 781, ptr null)
  %4 = load ptr, ptr %3, align 8
  %call7 = tail call zeroext i1 %4(ptr noundef nonnull %bs, ptr noundef %name, i32 noundef %granularity, ptr noundef %errp) #14
  br label %return

return:                                           ; preds = %if.end5, %if.then3, %if.then
  %retval.0 = phi i1 [ %call7, %if.end5 ], [ false, %if.then3 ], [ false, %if.then ]
  ret i1 %retval.0
}